target datalayout = "e-m:e-p270:32:32-p271:32:32-p272:64:64-i64:64-i128:128-f80:128-n8:16:32:64-S128"
target triple = "x86_64-pc-linux-gnu"

%"class.nanogui::Screen" = type { %"class.nanogui::Widget.base", ptr, ptr, [6 x ptr], i32, %"class.std::vector", %"struct.nanogui::Array", float, i32, i32, %"struct.nanogui::Array", i8, ptr, double, i8, %"class.nanogui::Color", %"class.std::__cxx11::basic_string", i8, i8, i8, i8, i8, i8, %"class.std::function" }
%"class.nanogui::Widget.base" = type <{ %"class.nanogui::Object.base", [4 x i8], ptr, %"class.nanogui::ref", %"class.nanogui::ref.0", %"struct.nanogui::Array", %"struct.nanogui::Array", %"struct.nanogui::Array", %"class.std::vector", i8, i8, i8, i8, [4 x i8], %"class.std::__cxx11::basic_string", i32, float, i32 }>
%"class.nanogui::Object.base" = type <{ ptr, %"struct.std::atomic" }>
%"struct.std::atomic" = type { %"struct.std::__atomic_base" }
%"struct.std::__atomic_base" = type { i32 }
%"class.nanogui::ref" = type { ptr }
%"class.nanogui::ref.0" = type { ptr }
%"class.std::vector" = type { %"struct.std::_Vector_base" }
%"struct.std::_Vector_base" = type { %"struct.std::_Vector_base<nanogui::Widget *, std::allocator<nanogui::Widget *>>::_Vector_impl" }
%"struct.std::_Vector_base<nanogui::Widget *, std::allocator<nanogui::Widget *>>::_Vector_impl" = type { %"struct.std::_Vector_base<nanogui::Widget *, std::allocator<nanogui::Widget *>>::_Vector_impl_data" }
%"struct.std::_Vector_base<nanogui::Widget *, std::allocator<nanogui::Widget *>>::_Vector_impl_data" = type { ptr, ptr, ptr }
%"struct.nanogui::Array" = type { [2 x i32] }
%"class.nanogui::Color" = type { %"struct.nanogui::Array.7" }
%"struct.nanogui::Array.7" = type { [4 x float] }
%"class.std::__cxx11::basic_string" = type { %"struct.std::__cxx11::basic_string<char>::_Alloc_hider", i64, %union.anon }
%"struct.std::__cxx11::basic_string<char>::_Alloc_hider" = type { ptr }
%union.anon = type { i64, [8 x i8] }
%"class.std::function" = type { %"class.std::_Function_base", ptr }
%"class.std::_Function_base" = type { %"union.std::_Any_data", ptr }
%"union.std::_Any_data" = type { %"union.std::_Nocopy_types" }
%"union.std::_Nocopy_types" = type { { i64, i64 } }

; Function Attrs: mustprogress nounwind uwtable
define linkonce_odr hidden noundef nonnull align 4 dereferenceable(4) ptr @_ZN7nanogui5ArrayIfLm4EEixEm(ptr noundef nonnull align 4 dereferenceable(16) %0, i64 noundef %1) #7 comdat align 2 {
  %3 = alloca ptr, align 8
  %4 = alloca i64, align 8
  store ptr %0, ptr %3, align 8
  store i64 %1, ptr %4, align 8
  %5 = load ptr, ptr %3, align 8
  %6 = getelementptr inbounds %"struct.nanogui::Array.7", ptr %5, i32 0, i32 0
  %7 = load i64, ptr %4, align 8
  %8 = getelementptr inbounds [4 x float], ptr %6, i64 0, i64 %7
  ret ptr %8
}

; Function Attrs: mustprogress uwtable
define hidden void @_ZN7nanogui6Screen5clearEv(ptr noundef nonnull align 8 dereferenceable(384) %0) unnamed_addr #4 align 2 {
  %2 = alloca ptr, align 8
  store ptr %0, ptr %2, align 8
  %3 = load ptr, ptr %2, align 8
  %4 = getelementptr inbounds %"class.nanogui::Screen", ptr %3, i32 0, i32 15
  %5 = call noundef nonnull align 4 dereferenceable(4) ptr @_ZN7nanogui5ArrayIfLm4EEixEm(ptr noundef nonnull align 4 dereferenceable(16) %4, i64 noundef 0)
  %6 = load float, ptr %5, align 4
  %7 = getelementptr inbounds %"class.nanogui::Screen", ptr %3, i32 0, i32 15
  %8 = call noundef nonnull align 4 dereferenceable(4) ptr @_ZN7nanogui5ArrayIfLm4EEixEm(ptr noundef nonnull align 4 dereferenceable(16) %7, i64 noundef 1)
  %9 = load float, ptr %8, align 4
  %10 = getelementptr inbounds %"class.nanogui::Screen", ptr %3, i32 0, i32 15
  %11 = call noundef nonnull align 4 dereferenceable(4) ptr @_ZN7nanogui5ArrayIfLm4EEixEm(ptr noundef nonnull align 4 dereferenceable(16) %10, i64 noundef 2)
  %12 = load float, ptr %11, align 4
  %13 = getelementptr inbounds %"class.nanogui::Screen", ptr %3, i32 0, i32 15
  %14 = call noundef nonnull align 4 dereferenceable(4) ptr @_ZN7nanogui5ArrayIfLm4EEixEm(ptr noundef nonnull align 4 dereferenceable(16) %13, i64 noundef 3)
  %15 = load float, ptr %14, align 4
  call void @glClearColor(float noundef %6, float noundef %9, float noundef %12, float noundef %15)
  call void @glClear(i32 noundef 17664)
  ret void
}