; Function Attrs: mustprogress uwtable
define hidden void @_ZN7nanogui6Screen5clearEv(ptr nocapture noundef nonnull readonly align 8 dereferenceable(384) %0) unnamed_addr #3 align 2 {
  %2 = getelementptr inbounds i8, ptr %0, i64 292
  %3 = load float, ptr %2, align 4
  %4 = getelementptr inbounds i8, ptr %0, i64 296
  %5 = load float, ptr %4, align 8
  %6 = getelementptr inbounds i8, ptr %0, i64 300
  %7 = load float, ptr %6, align 4
  %8 = getelementptr inbounds i8, ptr %0, i64 304
  %9 = load float, ptr %8, align 8
  tail call void @glClearColor(float noundef %3, float noundef %5, float noundef %7, float noundef %9)
  tail call void @glClear(i32 noundef 17664)
  ret void
}